target datalayout = "e-m:e-p270:32:32-p271:32:32-p272:64:64-i64:64-i128:128-f80:128-n8:16:32:64-S128"
target triple = "x86_64-pc-linux-gnu"

@opt_verbosity = internal global i32 6, align 4
@bio_err = external global ptr, align 8
@.str.351 = private unnamed_addr constant [22 x i8] c"../openssl/apps/cmp.c\00", align 1
@.str.352 = private unnamed_addr constant [6 x i8] c"error\00", align 1
@.str.353 = private unnamed_addr constant [1 x i8] zeroinitializer, align 1
@bio_out = external global ptr, align 8
@.str.355 = private unnamed_addr constant [5 x i8] c"info\00", align 1
@.str.363 = private unnamed_addr constant [8 x i8] c"warning\00", align 1
@opt_certform_s = internal global ptr @.str.398, align 8
@opt_certform = internal global i32 32773, align 4
@.str.662 = private unnamed_addr constant [69 x i8] c"%s:%s:%d:CMP %s: received %d %s certificate(s), saving to file '%s'\0A\00", align 1
@__func__.save_free_certs = private unnamed_addr constant [16 x i8] c"save_free_certs\00", align 1
@.str.663 = private unnamed_addr constant [75 x i8] c"%s:%s:%d:CMP %s: saving more than one certificate in non-PEM format%s%s%s\0A\00", align 1
@.str.664 = private unnamed_addr constant [68 x i8] c"%s:%s:%d:CMP %s: could not open file '%s' for %s %s certificate(s)\0A\00", align 1
@.str.665 = private unnamed_addr constant [9 x i8] c"deleting\00", align 1
@.str.666 = private unnamed_addr constant [8 x i8] c"writing\00", align 1
@.str.667 = private unnamed_addr constant [61 x i8] c"%s:%s:%d:CMP %s: cannot write %s certificate to file '%s'%s\0A\00", align 1
@.str.668 = private unnamed_addr constant [55 x i8] c"error: unsupported type '%s' for writing certificates\0A\00", align 1

; Function Attrs: nounwind uwtable
define internal i32 @write_cert(ptr noundef %0, ptr noundef %1) #0 {
  %3 = alloca i32, align 4
  %4 = alloca ptr, align 8
  %5 = alloca ptr, align 8
  store ptr %0, ptr %4, align 8, !tbaa !21
  store ptr %1, ptr %5, align 8, !tbaa !13
  %6 = load i32, ptr @opt_certform, align 4, !tbaa !4
  %7 = icmp eq i32 %6, 32773
  br i1 %7, label %8, label %13

8:                                                ; preds = %2
  %9 = load ptr, ptr %4, align 8, !tbaa !21
  %10 = load ptr, ptr %5, align 8, !tbaa !13
  %11 = call i32 @PEM_write_bio_X509(ptr noundef %9, ptr noundef %10)
  %12 = icmp ne i32 %11, 0
  br i1 %12, label %21, label %13

13:                                               ; preds = %8, %2
  %14 = load i32, ptr @opt_certform, align 4, !tbaa !4
  %15 = icmp eq i32 %14, 4
  br i1 %15, label %16, label %22

16:                                               ; preds = %13
  %17 = load ptr, ptr %4, align 8, !tbaa !21
  %18 = load ptr, ptr %5, align 8, !tbaa !13
  %19 = call i32 @i2d_X509_bio(ptr noundef %17, ptr noundef %18)
  %20 = icmp ne i32 %19, 0
  br i1 %20, label %21, label %22

21:                                               ; preds = %16, %8
  store i32 1, ptr %3, align 4
  br label %33

22:                                               ; preds = %16, %13
  %23 = load i32, ptr @opt_certform, align 4, !tbaa !4
  %24 = icmp ne i32 %23, 32773
  br i1 %24, label %25, label %32

25:                                               ; preds = %22
  %26 = load i32, ptr @opt_certform, align 4, !tbaa !4
  %27 = icmp ne i32 %26, 4
  br i1 %27, label %28, label %32

28:                                               ; preds = %25
  %29 = load ptr, ptr @bio_err, align 8, !tbaa !21
  %30 = load ptr, ptr @opt_certform_s, align 8, !tbaa !11
  %31 = call i32 (ptr, ptr, ...) @BIO_printf(ptr noundef %29, ptr noundef @.str.668, ptr noundef %30)
  br label %32

32:                                               ; preds = %28, %25, %22
  store i32 0, ptr %3, align 4
  br label %33

33:                                               ; preds = %32, %21
  %34 = load i32, ptr %3, align 4
  ret i32 %34
}

; Function Attrs: inlinehint nounwind uwtable
define internal ptr @ossl_check_const_X509_sk_type(ptr noundef %0) #5 {
  %2 = alloca ptr, align 8
  store ptr %0, ptr %2, align 8, !tbaa !30
  %3 = load ptr, ptr %2, align 8, !tbaa !30
  ret ptr %3
}

; Function Attrs: nounwind uwtable
define internal i32 @save_free_certs(ptr noundef %0, ptr noundef %1, ptr noundef %2) #0 {
  %4 = alloca ptr, align 8
  %5 = alloca ptr, align 8
  %6 = alloca ptr, align 8
  %7 = alloca ptr, align 8
  %8 = alloca i32, align 4
  %9 = alloca i32, align 4
  store ptr %0, ptr %4, align 8, !tbaa !30
  store ptr %1, ptr %5, align 8, !tbaa !11
  store ptr %2, ptr %6, align 8, !tbaa !11
  call void @llvm.lifetime.start.p0(i64 8, ptr %7) #11
  store ptr null, ptr %7, align 8, !tbaa !21
  call void @llvm.lifetime.start.p0(i64 4, ptr %8) #11
  call void @llvm.lifetime.start.p0(i64 4, ptr %9) #11
  %10 = load ptr, ptr %4, align 8, !tbaa !30
  %11 = call ptr @ossl_check_const_X509_sk_type(ptr noundef %10)
  %12 = call i32 @OPENSSL_sk_num(ptr noundef %11)
  store i32 %12, ptr %9, align 4, !tbaa !4
  %13 = load i32, ptr %9, align 4, !tbaa !4
  %14 = icmp slt i32 %13, 0
  br i1 %14, label %15, label %16

15:                                               ; preds = %3
  store i32 0, ptr %9, align 4, !tbaa !4
  br label %16

16:                                               ; preds = %15, %3
  %17 = load ptr, ptr %5, align 8, !tbaa !11
  %18 = icmp eq ptr %17, null
  br i1 %18, label %19, label %20

19:                                               ; preds = %16
  br label %99

20:                                               ; preds = %16
  %21 = load ptr, ptr %4, align 8, !tbaa !30
  %22 = icmp ne ptr %21, null
  br i1 %22, label %23, label %34

23:                                               ; preds = %20
  %24 = load i32, ptr @opt_verbosity, align 4, !tbaa !4
  %25 = icmp sgt i32 6, %24
  br i1 %25, label %26, label %27

26:                                               ; preds = %23
  br label %33

27:                                               ; preds = %23
  %28 = load ptr, ptr @bio_out, align 8, !tbaa !21
  %29 = load i32, ptr %9, align 4, !tbaa !4
  %30 = load ptr, ptr %6, align 8, !tbaa !11
  %31 = load ptr, ptr %5, align 8, !tbaa !11
  %32 = call i32 (ptr, ptr, ...) @BIO_printf(ptr noundef %28, ptr noundef @.str.662, ptr noundef @__func__.save_free_certs, ptr noundef @.str.351, i32 noundef 2401, ptr noundef @.str.355, i32 noundef %29, ptr noundef %30, ptr noundef %31)
  br label %33

33:                                               ; preds = %27, %26
  br label %34

34:                                               ; preds = %33, %20
  %35 = load i32, ptr %9, align 4, !tbaa !4
  %36 = icmp sgt i32 %35, 1
  br i1 %36, label %37, label %48

37:                                               ; preds = %34
  %38 = load i32, ptr @opt_certform, align 4, !tbaa !4
  %39 = icmp ne i32 %38, 32773
  br i1 %39, label %40, label %48

40:                                               ; preds = %37
  %41 = load i32, ptr @opt_verbosity, align 4, !tbaa !4
  %42 = icmp sgt i32 4, %41
  br i1 %42, label %43, label %44

43:                                               ; preds = %40
  br label %47

44:                                               ; preds = %40
  %45 = load ptr, ptr @bio_out, align 8, !tbaa !21
  %46 = call i32 (ptr, ptr, ...) @BIO_printf(ptr noundef %45, ptr noundef @.str.663, ptr noundef @__func__.save_free_certs, ptr noundef @.str.351, i32 noundef 2403, ptr noundef @.str.363, ptr noundef @.str.353, ptr noundef @.str.353, ptr noundef @.str.353)
  br label %47

47:                                               ; preds = %44, %43
  br label %48

48:                                               ; preds = %47, %37, %34
  %49 = call ptr @BIO_s_file()
  %50 = call ptr @BIO_new(ptr noundef %49)
  store ptr %50, ptr %7, align 8, !tbaa !21
  %51 = icmp eq ptr %50, null
  br i1 %51, label %58, label %52

52:                                               ; preds = %48
  %53 = load ptr, ptr %7, align 8, !tbaa !21
  %54 = load ptr, ptr %5, align 8, !tbaa !11
  %55 = call i64 @BIO_ctrl(ptr noundef %53, i32 noundef 108, i64 noundef 5, ptr noundef %54)
  %56 = trunc i64 %55 to i32
  %57 = icmp ne i32 %56, 0
  br i1 %57, label %71, label %58

58:                                               ; preds = %52, %48
  %59 = load i32, ptr @opt_verbosity, align 4, !tbaa !4
  %60 = icmp sgt i32 3, %59
  br i1 %60, label %61, label %62

61:                                               ; preds = %58
  br label %70

62:                                               ; preds = %58
  %63 = load ptr, ptr @bio_err, align 8, !tbaa !21
  %64 = load ptr, ptr %5, align 8, !tbaa !11
  %65 = load ptr, ptr %4, align 8, !tbaa !30
  %66 = icmp eq ptr %65, null
  %67 = select i1 %66, ptr @.str.665, ptr @.str.666
  %68 = load ptr, ptr %6, align 8, !tbaa !11
  %69 = call i32 (ptr, ptr, ...) @BIO_printf(ptr noundef %63, ptr noundef @.str.664, ptr noundef @__func__.save_free_certs, ptr noundef @.str.351, i32 noundef 2408, ptr noundef @.str.352, ptr noundef %64, ptr noundef %67, ptr noundef %68)
  br label %70

70:                                               ; preds = %62, %61
  store i32 -1, ptr %9, align 4, !tbaa !4
  br label %99

71:                                               ; preds = %52
  store i32 0, ptr %8, align 4, !tbaa !4
  br label %72

72:                                               ; preds = %95, %71
  %73 = load i32, ptr %8, align 4, !tbaa !4
  %74 = load i32, ptr %9, align 4, !tbaa !4
  %75 = icmp slt i32 %73, %74
  br i1 %75, label %76, label %98

76:                                               ; preds = %72
  %77 = load ptr, ptr %7, align 8, !tbaa !21
  %78 = load ptr, ptr %4, align 8, !tbaa !30
  %79 = call ptr @ossl_check_const_X509_sk_type(ptr noundef %78)
  %80 = load i32, ptr %8, align 4, !tbaa !4
  %81 = call ptr @OPENSSL_sk_value(ptr noundef %79, i32 noundef %80)
  %82 = call i32 @write_cert(ptr noundef %77, ptr noundef %81)
  %83 = icmp ne i32 %82, 0
  br i1 %83, label %94, label %84

84:                                               ; preds = %76
  %85 = load i32, ptr @opt_verbosity, align 4, !tbaa !4
  %86 = icmp sgt i32 3, %85
  br i1 %86, label %87, label %88

87:                                               ; preds = %84
  br label %93

88:                                               ; preds = %84
  %89 = load ptr, ptr @bio_err, align 8, !tbaa !21
  %90 = load ptr, ptr %6, align 8, !tbaa !11
  %91 = load ptr, ptr %5, align 8, !tbaa !11
  %92 = call i32 (ptr, ptr, ...) @BIO_printf(ptr noundef %89, ptr noundef @.str.667, ptr noundef @__func__.save_free_certs, ptr noundef @.str.351, i32 noundef 2415, ptr noundef @.str.352, ptr noundef %90, ptr noundef %91, ptr noundef @.str.353)
  br label %93

93:                                               ; preds = %88, %87
  store i32 -1, ptr %9, align 4, !tbaa !4
  br label %99

94:                                               ; preds = %76
  br label %95

95:                                               ; preds = %94
  %96 = load i32, ptr %8, align 4, !tbaa !4
  %97 = add nsw i32 %96, 1
  store i32 %97, ptr %8, align 4, !tbaa !4
  br label %72, !llvm.loop !79

98:                                               ; preds = %72
  br label %99

99:                                               ; preds = %98, %93, %70, %19
  %100 = load ptr, ptr %7, align 8, !tbaa !21
  %101 = call i32 @BIO_free(ptr noundef %100)
  %102 = load ptr, ptr %4, align 8, !tbaa !30
  call void @OSSL_STACK_OF_X509_free(ptr noundef %102)
  %103 = load i32, ptr %9, align 4, !tbaa !4
  call void @llvm.lifetime.end.p0(i64 4, ptr %9) #11
  call void @llvm.lifetime.end.p0(i64 4, ptr %8) #11
  call void @llvm.lifetime.end.p0(i64 8, ptr %7) #11
  ret i32 %103
}