; Function Attrs: nounwind uwtable
define internal fastcc range(i32 -1, -2147483648) i32 @save_free_certs(ptr noundef %0, ptr noundef %1, ptr noundef %2) unnamed_addr #0 {
  %4 = tail call i32 @OPENSSL_sk_num(ptr noundef %0) #12
  %spec.store.select = tail call i32 @llvm.smax.i32(i32 %4, i32 0)
  %5 = icmp eq ptr %1, null
  br i1 %5, label %.loopexit, label %6

6:                                                ; preds = %3
  %7 = icmp eq ptr %0, null
  %8 = load i32, ptr @opt_verbosity, align 4
  %9 = icmp slt i32 %8, 6
  %or.cond3 = select i1 %7, i1 true, i1 %9
  br i1 %or.cond3, label %13, label %10

10:                                               ; preds = %6
  %11 = load ptr, ptr @bio_out, align 8, !tbaa !12
  %12 = tail call i32 (ptr, ptr, ...) @BIO_printf(ptr noundef %11, ptr noundef nonnull @.str.662, ptr noundef nonnull @__func__.save_free_certs, ptr noundef nonnull @.str.351, i32 noundef 2401, ptr noundef nonnull @.str.355, i32 noundef %spec.store.select, ptr noundef %2, ptr noundef nonnull %1) #12
  %.pre = load i32, ptr @opt_verbosity, align 4
  br label %13

13:                                               ; preds = %10, %6
  %14 = phi i32 [ %.pre, %10 ], [ %8, %6 ]
  %15 = icmp slt i32 %4, 2
  %16 = load i32, ptr @opt_certform, align 4
  %17 = icmp eq i32 %16, 32773
  %or.cond.not33 = select i1 %15, i1 true, i1 %17
  %18 = icmp slt i32 %14, 4
  %or.cond5 = select i1 %or.cond.not33, i1 true, i1 %18
  br i1 %or.cond5, label %22, label %19

19:                                               ; preds = %13
  %20 = load ptr, ptr @bio_out, align 8, !tbaa !12
  %21 = tail call i32 (ptr, ptr, ...) @BIO_printf(ptr noundef %20, ptr noundef nonnull @.str.663, ptr noundef nonnull @__func__.save_free_certs, ptr noundef nonnull @.str.351, i32 noundef 2403, ptr noundef nonnull @.str.363, ptr noundef nonnull @.str.353, ptr noundef nonnull @.str.353, ptr noundef nonnull @.str.353) #12
  br label %22

22:                                               ; preds = %19, %13
  %23 = tail call ptr @BIO_s_file() #12
  %24 = tail call ptr @BIO_new(ptr noundef %23) #12
  %25 = icmp eq ptr %24, null
  br i1 %25, label %30, label %26

26:                                               ; preds = %22
  %27 = tail call i64 @BIO_ctrl(ptr noundef nonnull %24, i32 noundef 108, i64 noundef 5, ptr noundef nonnull %1) #12
  %28 = and i64 %27, 4294967295
  %.not = icmp eq i64 %28, 0
  br i1 %.not, label %30, label %.preheader

.preheader:                                       ; preds = %26
  %29 = icmp sgt i32 %4, 0
  br i1 %29, label %.lr.ph, label %.loopexit

30:                                               ; preds = %26, %22
  %31 = load i32, ptr @opt_verbosity, align 4, !tbaa !10
  %32 = icmp slt i32 %31, 3
  br i1 %32, label %.loopexit, label %33

33:                                               ; preds = %30
  %34 = load ptr, ptr @bio_err, align 8, !tbaa !12
  %35 = select i1 %7, ptr @.str.665, ptr @.str.666
  %36 = tail call i32 (ptr, ptr, ...) @BIO_printf(ptr noundef %34, ptr noundef nonnull @.str.664, ptr noundef nonnull @__func__.save_free_certs, ptr noundef nonnull @.str.351, i32 noundef 2408, ptr noundef nonnull @.str.352, ptr noundef nonnull %1, ptr noundef nonnull %35, ptr noundef %2) #12
  br label %.loopexit

.lr.ph:                                           ; preds = %.preheader, %write_cert.exit
  %.02839 = phi i32 [ %58, %write_cert.exit ], [ 0, %.preheader ]
  %37 = tail call ptr @OPENSSL_sk_value(ptr noundef %0, i32 noundef %.02839) #12
  %38 = load i32, ptr @opt_certform, align 4, !tbaa !10
  %39 = icmp eq i32 %38, 32773
  br i1 %39, label %40, label %42

40:                                               ; preds = %.lr.ph
  %41 = tail call i32 @PEM_write_bio_X509(ptr noundef nonnull %24, ptr noundef %37) #12
  %.not.i = icmp eq i32 %41, 0
  br i1 %.not.i, label %thread-pre-split.i, label %write_cert.exit

thread-pre-split.i:                               ; preds = %40
  %.pr.i = load i32, ptr @opt_certform, align 4, !tbaa !10
  br label %42

42:                                               ; preds = %thread-pre-split.i, %.lr.ph
  %43 = phi i32 [ %.pr.i, %thread-pre-split.i ], [ %38, %.lr.ph ]
  %44 = icmp eq i32 %43, 4
  br i1 %44, label %45, label %.loopexit37

45:                                               ; preds = %42
  %46 = tail call i32 @i2d_X509_bio(ptr noundef nonnull %24, ptr noundef %37) #12
  %.not5.i = icmp eq i32 %46, 0
  br i1 %.not5.i, label %._crit_edge.i, label %write_cert.exit

._crit_edge.i:                                    ; preds = %45
  %.pre.i = load i32, ptr @opt_certform, align 4, !tbaa !10
  br label %.loopexit37

.loopexit37:                                      ; preds = %42, %._crit_edge.i
  %47 = phi i32 [ %.pre.i, %._crit_edge.i ], [ %43, %42 ]
  switch i32 %47, label %48 [
    i32 32773, label %52
    i32 4, label %52
  ]

48:                                               ; preds = %.loopexit37
  %49 = load ptr, ptr @bio_err, align 8, !tbaa !12
  %50 = load ptr, ptr @opt_certform_s, align 8, !tbaa !4
  %51 = tail call i32 (ptr, ptr, ...) @BIO_printf(ptr noundef %49, ptr noundef nonnull @.str.668, ptr noundef %50) #12
  br label %52

52:                                               ; preds = %.loopexit37, %.loopexit37, %48
  %53 = load i32, ptr @opt_verbosity, align 4, !tbaa !10
  %54 = icmp slt i32 %53, 3
  br i1 %54, label %.loopexit, label %55

55:                                               ; preds = %52
  %56 = load ptr, ptr @bio_err, align 8, !tbaa !12
  %57 = tail call i32 (ptr, ptr, ...) @BIO_printf(ptr noundef %56, ptr noundef nonnull @.str.667, ptr noundef nonnull @__func__.save_free_certs, ptr noundef nonnull @.str.351, i32 noundef 2415, ptr noundef nonnull @.str.352, ptr noundef %2, ptr noundef nonnull %1, ptr noundef nonnull @.str.353) #12
  br label %.loopexit

write_cert.exit:                                  ; preds = %45, %40
  %58 = add nuw nsw i32 %.02839, 1
  %exitcond.not = icmp eq i32 %58, %4
  br i1 %exitcond.not, label %.loopexit, label %.lr.ph, !llvm.loop !69

.loopexit:                                        ; preds = %write_cert.exit, %.preheader, %55, %52, %33, %30, %3
  %.029 = phi ptr [ null, %3 ], [ %24, %30 ], [ %24, %33 ], [ %24, %52 ], [ %24, %55 ], [ %24, %.preheader ], [ %24, %write_cert.exit ]
  %.0 = phi i32 [ %spec.store.select, %3 ], [ -1, %30 ], [ -1, %33 ], [ -1, %52 ], [ -1, %55 ], [ %spec.store.select, %.preheader ], [ %spec.store.select, %write_cert.exit ]
  %59 = tail call i32 @BIO_free(ptr noundef %.029) #12
  tail call void @OSSL_STACK_OF_X509_free(ptr noundef %0) #12
  ret i32 %.0
}